target datalayout = "e-m:e-p270:32:32-p271:32:32-p272:64:64-i64:64-i128:128-f80:128-n8:16:32:64-S128"
target triple = "x86_64-pc-linux-gnu"

@.str.182 = private unnamed_addr constant [43 x i8] c"%s constraints cannot be marked DEFERRABLE\00", align 1
@.str.183 = private unnamed_addr constant [42 x i8] c"%s constraints cannot be marked NOT VALID\00", align 1
@.str.184 = private unnamed_addr constant [43 x i8] c"%s constraints cannot be marked NO INHERIT\00", align 1

; Function Attrs: mustprogress uwtable
define internal void @_ZN17duckdb_libpgqueryL14processCASbitsEiiPKcPbS2_S2_S2_Pv(i32 noundef %0, i32 noundef %1, ptr noundef %2, ptr noundef %3, ptr noundef %4, ptr noundef %5, ptr noundef %6, ptr noundef %7) #0 {
  %9 = alloca i32, align 4
  %10 = alloca i32, align 4
  %11 = alloca ptr, align 8
  %12 = alloca ptr, align 8
  %13 = alloca ptr, align 8
  %14 = alloca ptr, align 8
  %15 = alloca ptr, align 8
  %16 = alloca ptr, align 8
  store i32 %0, ptr %9, align 4, !tbaa !7
  store i32 %1, ptr %10, align 4, !tbaa !7
  store ptr %2, ptr %11, align 8, !tbaa !470
  store ptr %3, ptr %12, align 8, !tbaa !732
  store ptr %4, ptr %13, align 8, !tbaa !732
  store ptr %5, ptr %14, align 8, !tbaa !732
  store ptr %6, ptr %15, align 8, !tbaa !732
  store ptr %7, ptr %16, align 8, !tbaa !3
  %17 = load ptr, ptr %12, align 8, !tbaa !732
  %18 = icmp ne ptr %17, null
  br i1 %18, label %19, label %21

19:                                               ; preds = %8
  %20 = load ptr, ptr %12, align 8, !tbaa !732
  store i8 0, ptr %20, align 1, !tbaa !734
  br label %21

21:                                               ; preds = %19, %8
  %22 = load ptr, ptr %13, align 8, !tbaa !732
  %23 = icmp ne ptr %22, null
  br i1 %23, label %24, label %26

24:                                               ; preds = %21
  %25 = load ptr, ptr %13, align 8, !tbaa !732
  store i8 0, ptr %25, align 1, !tbaa !734
  br label %26

26:                                               ; preds = %24, %21
  %27 = load ptr, ptr %14, align 8, !tbaa !732
  %28 = icmp ne ptr %27, null
  br i1 %28, label %29, label %31

29:                                               ; preds = %26
  %30 = load ptr, ptr %14, align 8, !tbaa !732
  store i8 0, ptr %30, align 1, !tbaa !734
  br label %31

31:                                               ; preds = %29, %26
  %32 = load i32, ptr %9, align 4, !tbaa !7
  %33 = and i32 %32, 10
  %34 = icmp ne i32 %33, 0
  br i1 %34, label %35, label %49

35:                                               ; preds = %31
  %36 = load ptr, ptr %12, align 8, !tbaa !732
  %37 = icmp ne ptr %36, null
  br i1 %37, label %38, label %40

38:                                               ; preds = %35
  %39 = load ptr, ptr %12, align 8, !tbaa !732
  store i8 1, ptr %39, align 1, !tbaa !734
  br label %48

40:                                               ; preds = %35
  %41 = call noundef i32 @_ZN17duckdb_libpgquery7errcodeEi(i32 noundef 1)
  %42 = load ptr, ptr %11, align 8, !tbaa !470
  %43 = call noundef i32 (ptr, ...) @_ZN17duckdb_libpgquery6errmsgEPKcz(ptr noundef @.str.182, ptr noundef %42)
  %44 = load i32, ptr %10, align 4, !tbaa !7
  %45 = load ptr, ptr %16, align 8, !tbaa !3
  %46 = call noundef i32 @_ZN17duckdb_libpgquery19scanner_errpositionEiPv(i32 noundef %44, ptr noundef %45)
  %47 = call noundef i32 (i32, ...) @_ZN17duckdb_libpgquery7ereportEiz(i32 noundef 3, i32 noundef %46)
  br label %48

48:                                               ; preds = %40, %38
  br label %49

49:                                               ; preds = %48, %31
  %50 = load i32, ptr %9, align 4, !tbaa !7
  %51 = and i32 %50, 8
  %52 = icmp ne i32 %51, 0
  br i1 %52, label %53, label %67

53:                                               ; preds = %49
  %54 = load ptr, ptr %13, align 8, !tbaa !732
  %55 = icmp ne ptr %54, null
  br i1 %55, label %56, label %58

56:                                               ; preds = %53
  %57 = load ptr, ptr %13, align 8, !tbaa !732
  store i8 1, ptr %57, align 1, !tbaa !734
  br label %66

58:                                               ; preds = %53
  %59 = call noundef i32 @_ZN17duckdb_libpgquery7errcodeEi(i32 noundef 1)
  %60 = load ptr, ptr %11, align 8, !tbaa !470
  %61 = call noundef i32 (ptr, ...) @_ZN17duckdb_libpgquery6errmsgEPKcz(ptr noundef @.str.182, ptr noundef %60)
  %62 = load i32, ptr %10, align 4, !tbaa !7
  %63 = load ptr, ptr %16, align 8, !tbaa !3
  %64 = call noundef i32 @_ZN17duckdb_libpgquery19scanner_errpositionEiPv(i32 noundef %62, ptr noundef %63)
  %65 = call noundef i32 (i32, ...) @_ZN17duckdb_libpgquery7ereportEiz(i32 noundef 3, i32 noundef %64)
  br label %66

66:                                               ; preds = %58, %56
  br label %67

67:                                               ; preds = %66, %49
  %68 = load i32, ptr %9, align 4, !tbaa !7
  %69 = and i32 %68, 16
  %70 = icmp ne i32 %69, 0
  br i1 %70, label %71, label %85

71:                                               ; preds = %67
  %72 = load ptr, ptr %14, align 8, !tbaa !732
  %73 = icmp ne ptr %72, null
  br i1 %73, label %74, label %76

74:                                               ; preds = %71
  %75 = load ptr, ptr %14, align 8, !tbaa !732
  store i8 1, ptr %75, align 1, !tbaa !734
  br label %84

76:                                               ; preds = %71
  %77 = call noundef i32 @_ZN17duckdb_libpgquery7errcodeEi(i32 noundef 1)
  %78 = load ptr, ptr %11, align 8, !tbaa !470
  %79 = call noundef i32 (ptr, ...) @_ZN17duckdb_libpgquery6errmsgEPKcz(ptr noundef @.str.183, ptr noundef %78)
  %80 = load i32, ptr %10, align 4, !tbaa !7
  %81 = load ptr, ptr %16, align 8, !tbaa !3
  %82 = call noundef i32 @_ZN17duckdb_libpgquery19scanner_errpositionEiPv(i32 noundef %80, ptr noundef %81)
  %83 = call noundef i32 (i32, ...) @_ZN17duckdb_libpgquery7ereportEiz(i32 noundef 3, i32 noundef %82)
  br label %84

84:                                               ; preds = %76, %74
  br label %85

85:                                               ; preds = %84, %67
  %86 = load i32, ptr %9, align 4, !tbaa !7
  %87 = and i32 %86, 32
  %88 = icmp ne i32 %87, 0
  br i1 %88, label %89, label %103

89:                                               ; preds = %85
  %90 = load ptr, ptr %15, align 8, !tbaa !732
  %91 = icmp ne ptr %90, null
  br i1 %91, label %92, label %94

92:                                               ; preds = %89
  %93 = load ptr, ptr %15, align 8, !tbaa !732
  store i8 1, ptr %93, align 1, !tbaa !734
  br label %102

94:                                               ; preds = %89
  %95 = call noundef i32 @_ZN17duckdb_libpgquery7errcodeEi(i32 noundef 1)
  %96 = load ptr, ptr %11, align 8, !tbaa !470
  %97 = call noundef i32 (ptr, ...) @_ZN17duckdb_libpgquery6errmsgEPKcz(ptr noundef @.str.184, ptr noundef %96)
  %98 = load i32, ptr %10, align 4, !tbaa !7
  %99 = load ptr, ptr %16, align 8, !tbaa !3
  %100 = call noundef i32 @_ZN17duckdb_libpgquery19scanner_errpositionEiPv(i32 noundef %98, ptr noundef %99)
  %101 = call noundef i32 (i32, ...) @_ZN17duckdb_libpgquery7ereportEiz(i32 noundef 3, i32 noundef %100)
  br label %102

102:                                              ; preds = %94, %92
  br label %103

103:                                              ; preds = %102, %85
  ret void
}