; Function Attrs: mustprogress uwtable
define internal fastcc void @_ZN17duckdb_libpgqueryL14processCASbitsEiiPKcPbS2_S2_S2_Pv(i32 noundef %0, i32 noundef %1, ptr noundef %2, ptr noundef writeonly captures(address_is_null) %3, ptr noundef writeonly captures(address_is_null) %4, ptr noundef writeonly captures(address_is_null) %5, ptr noundef writeonly captures(address_is_null) %6, ptr noundef %7) unnamed_addr #0 {
  %.not = icmp eq ptr %3, null
  br i1 %.not, label %10, label %9

9:                                                ; preds = %8
  store i8 0, ptr %3, align 1, !tbaa !586
  br label %10

10:                                               ; preds = %9, %8
  %.not34 = icmp eq ptr %4, null
  br i1 %.not34, label %12, label %11

11:                                               ; preds = %10
  store i8 0, ptr %4, align 1, !tbaa !586
  br label %12

12:                                               ; preds = %11, %10
  %.not35 = icmp eq ptr %5, null
  br i1 %.not35, label %14, label %13

13:                                               ; preds = %12
  store i8 0, ptr %5, align 1, !tbaa !586
  br label %14

14:                                               ; preds = %13, %12
  %15 = and i32 %0, 10
  %.not36 = icmp eq i32 %15, 0
  br i1 %.not36, label %23, label %16

16:                                               ; preds = %14
  br i1 %.not, label %18, label %17

17:                                               ; preds = %16
  store i8 1, ptr %3, align 1, !tbaa !586
  br label %23

18:                                               ; preds = %16
  %19 = tail call noundef i32 @_ZN17duckdb_libpgquery7errcodeEi(i32 noundef 1)
  %20 = tail call noundef i32 (ptr, ...) @_ZN17duckdb_libpgquery6errmsgEPKcz(ptr noundef nonnull @.str.182, ptr noundef %2)
  %21 = tail call noundef i32 @_ZN17duckdb_libpgquery19scanner_errpositionEiPv(i32 noundef %1, ptr noundef %7)
  %22 = tail call noundef i32 (i32, ...) @_ZN17duckdb_libpgquery7ereportEiz(i32 noundef 3, i32 noundef %21)
  br label %23

23:                                               ; preds = %17, %18, %14
  %24 = and i32 %0, 8
  %.not37 = icmp eq i32 %24, 0
  br i1 %.not37, label %32, label %25

25:                                               ; preds = %23
  br i1 %.not34, label %27, label %26

26:                                               ; preds = %25
  store i8 1, ptr %4, align 1, !tbaa !586
  br label %32

27:                                               ; preds = %25
  %28 = tail call noundef i32 @_ZN17duckdb_libpgquery7errcodeEi(i32 noundef 1)
  %29 = tail call noundef i32 (ptr, ...) @_ZN17duckdb_libpgquery6errmsgEPKcz(ptr noundef nonnull @.str.182, ptr noundef %2)
  %30 = tail call noundef i32 @_ZN17duckdb_libpgquery19scanner_errpositionEiPv(i32 noundef %1, ptr noundef %7)
  %31 = tail call noundef i32 (i32, ...) @_ZN17duckdb_libpgquery7ereportEiz(i32 noundef 3, i32 noundef %30)
  br label %32

32:                                               ; preds = %26, %27, %23
  %33 = and i32 %0, 16
  %.not38 = icmp eq i32 %33, 0
  br i1 %.not38, label %41, label %34

34:                                               ; preds = %32
  br i1 %.not35, label %36, label %35

35:                                               ; preds = %34
  store i8 1, ptr %5, align 1, !tbaa !586
  br label %41

36:                                               ; preds = %34
  %37 = tail call noundef i32 @_ZN17duckdb_libpgquery7errcodeEi(i32 noundef 1)
  %38 = tail call noundef i32 (ptr, ...) @_ZN17duckdb_libpgquery6errmsgEPKcz(ptr noundef nonnull @.str.183, ptr noundef %2)
  %39 = tail call noundef i32 @_ZN17duckdb_libpgquery19scanner_errpositionEiPv(i32 noundef %1, ptr noundef %7)
  %40 = tail call noundef i32 (i32, ...) @_ZN17duckdb_libpgquery7ereportEiz(i32 noundef 3, i32 noundef %39)
  br label %41

41:                                               ; preds = %35, %36, %32
  %42 = and i32 %0, 32
  %.not39 = icmp eq i32 %42, 0
  br i1 %.not39, label %50, label %43

43:                                               ; preds = %41
  %.not40 = icmp eq ptr %6, null
  br i1 %.not40, label %45, label %44

44:                                               ; preds = %43
  store i8 1, ptr %6, align 1, !tbaa !586
  br label %50

45:                                               ; preds = %43
  %46 = tail call noundef i32 @_ZN17duckdb_libpgquery7errcodeEi(i32 noundef 1)
  %47 = tail call noundef i32 (ptr, ...) @_ZN17duckdb_libpgquery6errmsgEPKcz(ptr noundef nonnull @.str.184, ptr noundef %2)
  %48 = tail call noundef i32 @_ZN17duckdb_libpgquery19scanner_errpositionEiPv(i32 noundef %1, ptr noundef %7)
  %49 = tail call noundef i32 (i32, ...) @_ZN17duckdb_libpgquery7ereportEiz(i32 noundef 3, i32 noundef %48)
  br label %50

50:                                               ; preds = %44, %45, %41
  ret void
}